target datalayout = "e-m:e-p270:32:32-p271:32:32-p272:64:64-i64:64-i128:128-f80:128-n8:16:32:64-S128"
target triple = "x86_64-pc-linux-gnu"

%struct.tm = type { i32, i32, i32, i32, i32, i32, i32, i32, i32, i64, ptr }

@.str.7 = private unnamed_addr constant [18 x i8] c"%Y-%m-%d_%H-%M-%S\00", align 1
@_ZN13LogFileOutput8_pid_strE = hidden global [21 x i8] zeroinitializer, align 16
@_ZN13LogFileOutput18_vm_start_time_strE = hidden global [20 x i8] zeroinitializer, align 16
@.str.11 = private unnamed_addr constant [3 x i8] c"%d\00", align 1

; Function Attrs: mustprogress nounwind uwtable
define hidden void @_ZN13LogFileOutput24set_file_name_parametersEl(i64 noundef %0) #1 align 2 {
  %2 = alloca i64, align 8
  %3 = alloca i32, align 4
  %4 = alloca %struct.tm, align 8
  %5 = alloca i64, align 8
  store i64 %0, ptr %2, align 8
  %6 = call noundef i32 @_ZN2os18current_process_idEv()
  %7 = call i32 (ptr, i64, ptr, ...) @jio_snprintf(ptr noundef @_ZN13LogFileOutput8_pid_strE, i64 noundef 21, ptr noundef @.str.11, i32 noundef %6)
  store i32 %7, ptr %3, align 4
  %8 = load i64, ptr %2, align 8
  %9 = sdiv i64 %8, 1000
  store i64 %9, ptr %5, align 8
  %10 = call noundef ptr @_ZN2os12localtime_pdEPKlP2tm(ptr noundef %5, ptr noundef %4)
  %11 = call i64 @strftime(ptr noundef @_ZN13LogFileOutput18_vm_start_time_strE, i64 noundef 20, ptr noundef @.str.7, ptr noundef %4) #9
  %12 = trunc i64 %11 to i32
  store i32 %12, ptr %3, align 4
  ret void
}