; Function Attrs: mustprogress nounwind uwtable
define hidden void @_ZN13LogFileOutput24set_file_name_parametersEl(i64 noundef %0) local_unnamed_addr #0 align 2 {
  %2 = alloca %struct.tm, align 8
  %3 = alloca i64, align 8
  %4 = tail call noundef i32 @_ZN2os18current_process_idEv() #13
  %5 = tail call i32 (ptr, i64, ptr, ...) @jio_snprintf(ptr noundef nonnull @_ZN13LogFileOutput8_pid_strE, i64 noundef 21, ptr noundef nonnull @.str.11, i32 noundef %4) #13
  %6 = sdiv i64 %0, 1000
  store i64 %6, ptr %3, align 8
  %7 = call noundef ptr @_ZN2os12localtime_pdEPKlP2tm(ptr noundef nonnull %3, ptr noundef nonnull %2) #13
  %8 = call i64 @strftime(ptr noundef nonnull @_ZN13LogFileOutput18_vm_start_time_strE, i64 noundef 20, ptr noundef nonnull @.str.7, ptr noundef nonnull %2) #13
  ret void
}